EXPORTS
    _ZN3glm5tvec3IfLNS_9precisionE0EEC1Efff @1
    _ZN3glm5tvec3IfLNS_9precisionE0EEC1Ev @2
    _ZN4ndPE5World10makeObjectEfffffffffffNS_11ObjectTypesE @3
    _ZN4ndPE5World9makeAStepEf @4
    _ZN4ndPE5WorldC1Ev @5
    _ZN4ndPE5WorldC2Ev @6
    _ZN4ndPE5WorldD1Ev @7
    _ZN4ndPE5WorldD2Ev @8
    _ZN4ndPE6ObjectC1EfffffffffffNS_11ObjectTypesE @9
    _ZN4ndPE6ObjectC2EfffffffffffNS_11ObjectTypesE @10
    _ZN4ndPE6ObjectD1Ev @11
    _ZN4ndPE6ObjectD2Ev @12
    _ZN9__gnu_cxx13new_allocatorIPN4ndPE6ObjectEE10deallocateEPS3_y @13
    _ZN9__gnu_cxx13new_allocatorIPN4ndPE6ObjectEE7destroyIS3_EEvPT_ @14
    _ZN9__gnu_cxx13new_allocatorIPN4ndPE6ObjectEE8allocateEyPKv @15
    _ZN9__gnu_cxx13new_allocatorIPN4ndPE6ObjectEE9constructIS3_JS3_EEEvPT_DpOT0_ @16
    _ZN9__gnu_cxx13new_allocatorIPN4ndPE6ObjectEEC2Ev @17
    _ZN9__gnu_cxx13new_allocatorIPN4ndPE6ObjectEED2Ev @18
    _ZN9__gnu_cxx17__normal_iteratorIPKPN4ndPE6ObjectESt6vectorIS3_SaIS3_EEEC1ERKS5_ @19
    _ZN9__gnu_cxx17__normal_iteratorIPPN4ndPE6ObjectESt6vectorIS3_SaIS3_EEEC1ERKS4_ @20
    _ZN9__gnu_cxx17__normal_iteratorIPPN4ndPE6ObjectESt6vectorIS3_SaIS3_EEEppEv @21
    _ZN9__gnu_cxxeqIPKPN4ndPE6ObjectESt6vectorIS3_SaIS3_EEEEbRKNS_17__normal_iteratorIT_T0_EESE_ @22
    _ZN9__gnu_cxxneIPPN4ndPE6ObjectESt6vectorIS3_SaIS3_EEEEbRKNS_17__normal_iteratorIT_T0_EESD_ @23
    _ZNK9__gnu_cxx13new_allocatorIPN4ndPE6ObjectEE8max_sizeEv @24
    _ZNK9__gnu_cxx17__normal_iteratorIPKPN4ndPE6ObjectESt6vectorIS3_SaIS3_EEE4baseEv @25
    _ZNK9__gnu_cxx17__normal_iteratorIPPN4ndPE6ObjectESt6vectorIS3_SaIS3_EEE4baseEv @26
    _ZNK9__gnu_cxx17__normal_iteratorIPPN4ndPE6ObjectESt6vectorIS3_SaIS3_EEEdeEv @27
    _ZNK9__gnu_cxx17__normal_iteratorIPPN4ndPE6ObjectESt6vectorIS3_SaIS3_EEEmiEx @28
    _ZNKSt12_Vector_baseIPN4ndPE6ObjectESaIS2_EE19_M_get_Tp_allocatorEv @29
    _ZNKSt13move_iteratorIPPN4ndPE6ObjectEE4baseEv @30
    _ZNKSt6vectorIPN4ndPE6ObjectESaIS2_EE12_M_check_lenEyPKc @31
    _ZNKSt6vectorIPN4ndPE6ObjectESaIS2_EE3endEv @32
    _ZNKSt6vectorIPN4ndPE6ObjectESaIS2_EE4sizeEv @33
    _ZNKSt6vectorIPN4ndPE6ObjectESaIS2_EE5beginEv @34
    _ZNKSt6vectorIPN4ndPE6ObjectESaIS2_EE5emptyEv @35
    _ZNKSt6vectorIPN4ndPE6ObjectESaIS2_EE8max_sizeEv @36
    _ZNSaIPN4ndPE6ObjectEEC2Ev @37
    _ZNSaIPN4ndPE6ObjectEED2Ev @38
    _ZNSt10_Iter_baseIPPN4ndPE6ObjectELb0EE7_S_baseES3_ @39
    _ZNSt10_Iter_baseISt13move_iteratorIPPN4ndPE6ObjectEELb1EE7_S_baseES5_ @40
    _ZNSt11__copy_moveILb1ELb1ESt26random_access_iterator_tagE8__copy_mIPN4ndPE6ObjectEEEPT_PKS6_S9_S7_ @41
    _ZNSt12_Destroy_auxILb1EE9__destroyIPPN4ndPE6ObjectEEEvT_S6_ @42
    _ZNSt12_Vector_baseIPN4ndPE6ObjectESaIS2_EE11_M_allocateEy @43
    _ZNSt12_Vector_baseIPN4ndPE6ObjectESaIS2_EE12_Vector_implC1Ev @44
    _ZNSt12_Vector_baseIPN4ndPE6ObjectESaIS2_EE12_Vector_implD1Ev @45
    _ZNSt12_Vector_baseIPN4ndPE6ObjectESaIS2_EE13_M_deallocateEPS2_y @46
    _ZNSt12_Vector_baseIPN4ndPE6ObjectESaIS2_EE19_M_get_Tp_allocatorEv @47
    _ZNSt12_Vector_baseIPN4ndPE6ObjectESaIS2_EEC2Ev @48
    _ZNSt12_Vector_baseIPN4ndPE6ObjectESaIS2_EED2Ev @49
    _ZNSt13move_iteratorIPPN4ndPE6ObjectEEC1ES3_ @50
    _ZNSt16allocator_traitsISaIPN4ndPE6ObjectEEE10_S_destroyIS2_EENSt9enable_ifIXsrSt6__and_IJNS4_16__destroy_helperIT_E4typeEEE5valueEvE4typeERS3_PS9_ @51
    _ZNSt16allocator_traitsISaIPN4ndPE6ObjectEEE10deallocateERS3_PS2_y @52
    _ZNSt16allocator_traitsISaIPN4ndPE6ObjectEEE11_S_max_sizeIKS3_vEEyRT_i @53
    _ZNSt16allocator_traitsISaIPN4ndPE6ObjectEEE12_S_constructIS2_JS2_EEENSt9enable_ifIXsrSt6__and_IJNS4_18__construct_helperIT_JDpT0_EE4typeEEE5valueEvE4typeERS3_PS9_DpOSA_ @54
    _ZNSt16allocator_traitsISaIPN4ndPE6ObjectEEE7destroyIS2_EEvRS3_PT_ @55
    _ZNSt16allocator_traitsISaIPN4ndPE6ObjectEEE8allocateERS3_y @56
    _ZNSt16allocator_traitsISaIPN4ndPE6ObjectEEE8max_sizeERKS3_ @57
    _ZNSt16allocator_traitsISaIPN4ndPE6ObjectEEE9constructIS2_JS2_EEEDTcl12_S_constructfp_fp0_spcl7forwardIT0_Efp1_EEERS3_PT_DpOS6_ @58
    _ZNSt20__uninitialized_copyILb1EE13__uninit_copyISt13move_iteratorIPPN4ndPE6ObjectEES6_EET0_T_S9_S8_ @59
    _ZNSt6vectorIPN4ndPE6ObjectESaIS2_EE12emplace_backIJS2_EEEvDpOT_ @60
    _ZNSt6vectorIPN4ndPE6ObjectESaIS2_EE19_M_emplace_back_auxIJS2_EEEvDpOT_ @61
    _ZNSt6vectorIPN4ndPE6ObjectESaIS2_EE3endEv @62
    _ZNSt6vectorIPN4ndPE6ObjectESaIS2_EE4backEv @63
    _ZNSt6vectorIPN4ndPE6ObjectESaIS2_EE5beginEv @64
    _ZNSt6vectorIPN4ndPE6ObjectESaIS2_EE8pop_backEv @65
    _ZNSt6vectorIPN4ndPE6ObjectESaIS2_EE9push_backEOS2_ @66
    _ZNSt6vectorIPN4ndPE6ObjectESaIS2_EEC1Ev @67
    _ZNSt6vectorIPN4ndPE6ObjectESaIS2_EED1Ev @68
    _ZSt12__miter_baseISt13move_iteratorIPPN4ndPE6ObjectEEENSt11_Miter_baseIT_E13iterator_typeES7_ @69
    _ZSt12__niter_baseIPPN4ndPE6ObjectEENSt11_Niter_baseIT_E13iterator_typeES5_ @70
    _ZSt13__copy_move_aILb1EPPN4ndPE6ObjectES3_ET1_T0_S5_S4_ @71
    _ZSt14__copy_move_a2ILb1EPPN4ndPE6ObjectES3_ET1_T0_S5_S4_ @72
    _ZSt18uninitialized_copyISt13move_iteratorIPPN4ndPE6ObjectEES4_ET0_T_S7_S6_ @73
    _ZSt22__uninitialized_copy_aISt13move_iteratorIPPN4ndPE6ObjectEES4_S3_ET0_T_S7_S6_RSaIT1_E @74
    _ZSt32__make_move_if_noexcept_iteratorIPPN4ndPE6ObjectESt13move_iteratorIS3_EET0_T_ @75
    _ZSt34__uninitialized_move_if_noexcept_aIPPN4ndPE6ObjectES3_SaIS2_EET0_T_S6_S5_RT1_ @76
    _ZSt3maxIyERKT_S2_S2_ @77
    _ZSt4copyISt13move_iteratorIPPN4ndPE6ObjectEES4_ET0_T_S7_S6_ @78
    _ZSt4moveIRPN4ndPE6ObjectEEONSt16remove_referenceIT_E4typeEOS5_ @79
    _ZSt7forwardIPN4ndPE6ObjectEEOT_RNSt16remove_referenceIS3_E4typeE @80
    _ZSt8_DestroyIPPN4ndPE6ObjectEEvT_S4_ @81
    _ZSt8_DestroyIPPN4ndPE6ObjectES2_EvT_S4_RSaIT0_E @82
    _ZnwyPv @83
