EXPORTS
    _ZN3glm11inversesqrtIfEET_S1_ @1
    _ZN3glm11perspectiveIfEENS_7tmat4x4IT_LNS_9precisionE0EEES2_S2_S2_S2_ @2
    _ZN3glm13perspectiveRHIfEENS_7tmat4x4IT_LNS_9precisionE0EEES2_S2_S2_S2_ @3
    _ZN3glm3absIfEET_S1_ @4
    _ZN3glm3dotIfLNS_9precisionE0ENS_5tvec3EEET_RKT1_IS3_XT0_EES7_ @5
    _ZN3glm5crossIfLNS_9precisionE0EEENS_5tvec3IT_XT0_EEERKS4_S6_ @6
    _ZN3glm5scaleIfLNS_9precisionE0EEENS_7tmat4x4IT_XT0_EEERKNS_5tvec3IS3_XT0_EEE @7
    _ZN3glm5scaleIfLNS_9precisionE0EEENS_7tmat4x4IT_XT0_EEERKS4_RKNS_5tvec3IS3_XT0_EEE @8
    _ZN3glm5tvec3IfLNS_9precisionE0EE6lengthEv @9
    _ZN3glm5tvec3IfLNS_9precisionE0EEC1Efff @10
    _ZN3glm5tvec3IfLNS_9precisionE0EEC1Ev @11
    _ZN3glm5tvec3IfLNS_9precisionE0EEixEi @12
    _ZN3glm5tvec4IfLNS_9precisionE0EE6lengthEv @13
    _ZN3glm5tvec4IfLNS_9precisionE0EEC1Ef @14
    _ZN3glm5tvec4IfLNS_9precisionE0EEC1Effff @15
    _ZN3glm5tvec4IfLNS_9precisionE0EEC1Ev @16
    _ZN3glm5tvec4IfLNS_9precisionE0EEC1IfiiiEET_T0_T1_T2_ @17
    _ZN3glm5tvec4IfLNS_9precisionE0EEC1IifiiEET_T0_T1_T2_ @18
    _ZN3glm5tvec4IfLNS_9precisionE0EEC1IiifiEET_T0_T1_T2_ @19
    _ZN3glm5tvec4IfLNS_9precisionE0EEC1IiiifEET_T0_T1_T2_ @20
    _ZN3glm5tvec4IfLNS_9precisionE0EEixEi @21
    _ZN3glm5tvec4IfLNS_9precisionE0EEmLIfEERS2_T_ @22
    _ZN3glm5tvec4IfLNS_9precisionE0EEpLIfEERS2_RKNS0_IT_LS1_0EEE @23
    _ZN3glm6detail11compute_absIfLb1EE4callEf @24
    _ZN3glm6detail11compute_dotINS_5tvec3EfLNS_9precisionE0ELb0EE4callERKNS2_IfLS3_0EEES7_ @25
    _ZN3glm6detail13compute_crossIfLNS_9precisionE0ELb0EE4callERKNS_5tvec3IfLS2_0EEES7_ @26
    _ZN3glm6detail16compute_vec4_addIfLNS_9precisionE0ELb0EE4callERKNS_5tvec4IfLS2_0EEES7_ @27
    _ZN3glm6detail16compute_vec4_mulIfLNS_9precisionE0ELb0EE4callERKNS_5tvec4IfLS2_0EEES7_ @28
    _ZN3glm6detail17compute_normalizeIfLNS_9precisionE0ENS_5tvec3ELb0EE4callERKNS3_IfLS2_0EEE @29
    _ZN3glm6lookAtIfLNS_9precisionE0EEENS_7tmat4x4IT_XT0_EEERKNS_5tvec3IS3_XT0_EEES8_S8_ @30
    _ZN3glm6rotateIfLNS_9precisionE0EEENS_7tmat4x4IT_XT0_EEERKS4_S3_RKNS_5tvec3IS3_XT0_EEE @31
    _ZN3glm6rotateIfLNS_9precisionE0EEENS_7tmat4x4IT_XT0_EEES3_RKNS_5tvec3IS3_XT0_EEE @32
    _ZN3glm7radiansIfEET_S1_ @33
    _ZN3glm7tmat4x4IfLNS_9precisionE0EE6lengthEv @34
    _ZN3glm7tmat4x4IfLNS_9precisionE0EEC1ENS_4ctorE @35
    _ZN3glm7tmat4x4IfLNS_9precisionE0EEC1ERKf @36
    _ZN3glm7tmat4x4IfLNS_9precisionE0EEixEi @37
    _ZN3glm8lookAtRHIfLNS_9precisionE0EEENS_7tmat4x4IT_XT0_EEERKNS_5tvec3IS3_XT0_EEES8_S8_ @38
    _ZN3glm9normalizeIfLNS_9precisionE0ENS_5tvec3EEET1_IT_XT0_EERKS5_ @39
    _ZN3glm9translateIfLNS_9precisionE0EEENS_7tmat4x4IT_XT0_EEERKNS_5tvec3IS3_XT0_EEE @40
    _ZN3glm9translateIfLNS_9precisionE0EEENS_7tmat4x4IT_XT0_EEERKS4_RKNS_5tvec3IS3_XT0_EEE @41
    _ZN3glmmiIfLNS_9precisionE0EEENS_5tvec3IT_XT0_EEERKS4_S6_ @42
    _ZN3glmmlIfLNS_9precisionE0EEENS_5tvec3IT_XT0_EEERKS4_S3_ @43
    _ZN3glmmlIfLNS_9precisionE0EEENS_5tvec3IT_XT0_EEERKS4_S6_ @44
    _ZN3glmmlIfLNS_9precisionE0EEENS_5tvec3IT_XT0_EEES3_RKS4_ @45
    _ZN3glmmlIfLNS_9precisionE0EEENS_5tvec4IT_XT0_EEERKS4_S3_ @46
    _ZN3glmmlIfLNS_9precisionE0EEENS_7tmat4x4IT_XT0_EEERKS4_S6_ @47
    _ZN3glmplIfLNS_9precisionE0EEENS_5tvec3IT_XT0_EEERKS4_S6_ @48
    _ZN3glmplIfLNS_9precisionE0EEENS_5tvec4IT_XT0_EEERKS4_S6_ @49
    _ZN4ndGE10FpsLimiter12calculateFPSEv @50
    _ZN4ndGE10FpsLimiter3endEv @51
    _ZN4ndGE10FpsLimiter5beginEv @52
    _ZN4ndGE10FpsLimiter9setMaxFPSEf @53
    _ZN4ndGE10FpsLimiterC1Ef @54
    _ZN4ndGE10FpsLimiterC2Ef @55
    _ZN4ndGE10fatalErrorERKNSt7__cxx1112basic_stringIcSt11char_traitsIcESaIcEEE @56
    _ZN4ndGE16ShapeDescriptionC1Ev @57
    _ZN4ndGE4initEv @58
    _ZN4ndGE6CameraC1Ev @59
    _ZN4ndGE6CameraC2Ev @60
    _ZN4ndGE6VertexC1EN3glm5tvec3IfLNS1_9precisionE0EEES4_ @61
    _ZN4ndGE6VertexC1Ev @62
    _ZN4ndGE6Window18addTransformMatrixEiPf @63
    _ZN4ndGE6Window22resetTransformMaritcesEv @64
    _ZN4ndGE6Window5ShapeC1Ev @65
    _ZN4ndGE6Window8addShapeENSt7__cxx1112basic_stringIcSt11char_traitsIcESaIcEEE @66
    _ZN4ndGE6Window9drawFrameEv @67
    _ZN4ndGE6WindowC1ERKNSt7__cxx1112basic_stringIcSt11char_traitsIcESaIcEEEii @68
    _ZN4ndGE6WindowC2ERKNSt7__cxx1112basic_stringIcSt11char_traitsIcESaIcEEEii @69
    _ZN4ndGE6WindowD1Ev @70
    _ZN4ndGE6WindowD2Ev @71
    _ZN9__gnu_cxx13new_allocatorIN3glm7tmat4x4IfLNS1_9precisionE0EEEE10deallocateEPS4_y @72
    _ZN9__gnu_cxx13new_allocatorIN3glm7tmat4x4IfLNS1_9precisionE0EEEE7destroyIS4_EEvPT_ @73
    _ZN9__gnu_cxx13new_allocatorIN3glm7tmat4x4IfLNS1_9precisionE0EEEE8allocateEyPKv @74
    _ZN9__gnu_cxx13new_allocatorIN3glm7tmat4x4IfLNS1_9precisionE0EEEE9constructIS4_JS4_EEEvPT_DpOT0_ @75
    _ZN9__gnu_cxx13new_allocatorIN3glm7tmat4x4IfLNS1_9precisionE0EEEEC2ERKS5_ @76
    _ZN9__gnu_cxx13new_allocatorIN3glm7tmat4x4IfLNS1_9precisionE0EEEEC2Ev @77
    _ZN9__gnu_cxx13new_allocatorIN3glm7tmat4x4IfLNS1_9precisionE0EEEED2Ev @78
    _ZN9__gnu_cxx13new_allocatorIN4ndGE6VertexEE10deallocateEPS2_y @79
    _ZN9__gnu_cxx13new_allocatorIN4ndGE6VertexEE7destroyIS2_EEvPT_ @80
    _ZN9__gnu_cxx13new_allocatorIN4ndGE6VertexEE8allocateEyPKv @81
    _ZN9__gnu_cxx13new_allocatorIN4ndGE6VertexEE9constructIS2_JS2_EEEvPT_DpOT0_ @82
    _ZN9__gnu_cxx13new_allocatorIN4ndGE6VertexEEC2Ev @83
    _ZN9__gnu_cxx13new_allocatorIN4ndGE6VertexEED2Ev @84
    _ZN9__gnu_cxx13new_allocatorIPN4ndGE6Window5ShapeEE10deallocateEPS4_y @85
    _ZN9__gnu_cxx13new_allocatorIPN4ndGE6Window5ShapeEE7destroyIS4_EEvPT_ @86
    _ZN9__gnu_cxx13new_allocatorIPN4ndGE6Window5ShapeEE8allocateEyPKv @87
    _ZN9__gnu_cxx13new_allocatorIPN4ndGE6Window5ShapeEE9constructIS4_JRKS4_EEEvPT_DpOT0_ @88
    _ZN9__gnu_cxx13new_allocatorIPN4ndGE6Window5ShapeEEC2Ev @89
    _ZN9__gnu_cxx13new_allocatorIPN4ndGE6Window5ShapeEED2Ev @90
    _ZN9__gnu_cxx13new_allocatorISt6vectorIN3glm7tmat4x4IfLNS2_9precisionE0EEESaIS5_EEE10deallocateEPS7_y @91
    _ZN9__gnu_cxx13new_allocatorISt6vectorIN3glm7tmat4x4IfLNS2_9precisionE0EEESaIS5_EEE7destroyIS7_EEvPT_ @92
    _ZN9__gnu_cxx13new_allocatorISt6vectorIN3glm7tmat4x4IfLNS2_9precisionE0EEESaIS5_EEE8allocateEyPKv @93
    _ZN9__gnu_cxx13new_allocatorISt6vectorIN3glm7tmat4x4IfLNS2_9precisionE0EEESaIS5_EEE9constructIS7_JS7_EEEvPT_DpOT0_ @94
    _ZN9__gnu_cxx13new_allocatorISt6vectorIN3glm7tmat4x4IfLNS2_9precisionE0EEESaIS5_EEEC2Ev @95
    _ZN9__gnu_cxx13new_allocatorISt6vectorIN3glm7tmat4x4IfLNS2_9precisionE0EEESaIS5_EEED2Ev @96
    _ZN9__gnu_cxx13new_allocatorItE10deallocateEPty @97
    _ZN9__gnu_cxx13new_allocatorItE7destroyItEEvPT_ @98
    _ZN9__gnu_cxx13new_allocatorItE8allocateEyPKv @99
    _ZN9__gnu_cxx13new_allocatorItE9constructItJRKtEEEvPT_DpOT0_ @100
    _ZN9__gnu_cxx13new_allocatorItEC2Ev @101
    _ZN9__gnu_cxx13new_allocatorItED2Ev @102
    _ZNK3glm5tvec3IfLNS_9precisionE0EEixEi @103
    _ZNK3glm5tvec4IfLNS_9precisionE0EEixEi @104
    _ZNK3glm7tmat4x4IfLNS_9precisionE0EEixEi @105
    _ZNK4ndGE16ShapeDescription15indexBufferSizeEv @106
    _ZNK4ndGE16ShapeDescription16vertexBufferSizeEv @107
    _ZNK4ndGE6Camera20getWorldToViewMatrixEv @108
    _ZNK4ndGE6Window7getScrHEv @109
    _ZNK4ndGE6Window7getScrWEv @110
    _ZNK9__gnu_cxx13new_allocatorIN3glm7tmat4x4IfLNS1_9precisionE0EEEE8max_sizeEv @111
    _ZNK9__gnu_cxx13new_allocatorIN4ndGE6VertexEE8max_sizeEv @112
    _ZNK9__gnu_cxx13new_allocatorIPN4ndGE6Window5ShapeEE8max_sizeEv @113
    _ZNK9__gnu_cxx13new_allocatorISt6vectorIN3glm7tmat4x4IfLNS2_9precisionE0EEESaIS5_EEE8max_sizeEv @114
    _ZNK9__gnu_cxx13new_allocatorItE8max_sizeEv @115
    _ZNKSt12_Vector_baseIN3glm7tmat4x4IfLNS0_9precisionE0EEESaIS3_EE19_M_get_Tp_allocatorEv @116
    _ZNKSt12_Vector_baseIN4ndGE6VertexESaIS1_EE19_M_get_Tp_allocatorEv @117
    _ZNKSt12_Vector_baseIPN4ndGE6Window5ShapeESaIS3_EE19_M_get_Tp_allocatorEv @118
    _ZNKSt12_Vector_baseISt6vectorIN3glm7tmat4x4IfLNS1_9precisionE0EEESaIS4_EESaIS6_EE19_M_get_Tp_allocatorEv @119
    _ZNKSt12_Vector_baseItSaItEE19_M_get_Tp_allocatorEv @120
    _ZNKSt13move_iteratorIPN3glm7tmat4x4IfLNS0_9precisionE0EEEE4baseEv @121
    _ZNKSt13move_iteratorIPN3glm7tmat4x4IfLNS0_9precisionE0EEEEdeEv @122
    _ZNKSt13move_iteratorIPN4ndGE6VertexEE4baseEv @123
    _ZNKSt13move_iteratorIPN4ndGE6VertexEEdeEv @124
    _ZNKSt13move_iteratorIPPN4ndGE6Window5ShapeEE4baseEv @125
    _ZNKSt13move_iteratorIPSt6vectorIN3glm7tmat4x4IfLNS1_9precisionE0EEESaIS4_EEE4baseEv @126
    _ZNKSt13move_iteratorIPSt6vectorIN3glm7tmat4x4IfLNS1_9precisionE0EEESaIS4_EEEdeEv @127
    _ZNKSt13move_iteratorIPtE4baseEv @128
    _ZNKSt6vectorIN3glm7tmat4x4IfLNS0_9precisionE0EEESaIS3_EE12_M_check_lenEyPKc @129
    _ZNKSt6vectorIN3glm7tmat4x4IfLNS0_9precisionE0EEESaIS3_EE4sizeEv @130
    _ZNKSt6vectorIN3glm7tmat4x4IfLNS0_9precisionE0EEESaIS3_EE8max_sizeEv @131
    _ZNKSt6vectorIN4ndGE6VertexESaIS1_EE12_M_check_lenEyPKc @132
    _ZNKSt6vectorIN4ndGE6VertexESaIS1_EE4sizeEv @133
    _ZNKSt6vectorIN4ndGE6VertexESaIS1_EE8max_sizeEv @134
    _ZNKSt6vectorIPN4ndGE6Window5ShapeESaIS3_EE12_M_check_lenEyPKc @135
    _ZNKSt6vectorIPN4ndGE6Window5ShapeESaIS3_EE4sizeEv @136
    _ZNKSt6vectorIPN4ndGE6Window5ShapeESaIS3_EE8max_sizeEv @137
    _ZNKSt6vectorIS_IN3glm7tmat4x4IfLNS0_9precisionE0EEESaIS3_EESaIS5_EE12_M_check_lenEyPKc @138
    _ZNKSt6vectorIS_IN3glm7tmat4x4IfLNS0_9precisionE0EEESaIS3_EESaIS5_EE4sizeEv @139
    _ZNKSt6vectorIS_IN3glm7tmat4x4IfLNS0_9precisionE0EEESaIS3_EESaIS5_EE8max_sizeEv @140
    _ZNKSt6vectorItSaItEE12_M_check_lenEyPKc @141
    _ZNKSt6vectorItSaItEE4sizeEv @142
    _ZNKSt6vectorItSaItEE8max_sizeEv @143
    _ZNSaIN3glm7tmat4x4IfLNS_9precisionE0EEEEC2ERKS3_ @144
    _ZNSaIN3glm7tmat4x4IfLNS_9precisionE0EEEEC2Ev @145
    _ZNSaIN3glm7tmat4x4IfLNS_9precisionE0EEEED2Ev @146
    _ZNSaIN4ndGE6VertexEEC2Ev @147
    _ZNSaIN4ndGE6VertexEED2Ev @148
    _ZNSaIPN4ndGE6Window5ShapeEEC2Ev @149
    _ZNSaIPN4ndGE6Window5ShapeEED2Ev @150
    _ZNSaISt6vectorIN3glm7tmat4x4IfLNS0_9precisionE0EEESaIS3_EEEC2Ev @151
    _ZNSaISt6vectorIN3glm7tmat4x4IfLNS0_9precisionE0EEESaIS3_EEED2Ev @152
    _ZNSaItEC2Ev @153
    _ZNSaItED2Ev @154
    _ZNSt10_Iter_baseIPPN4ndGE6Window5ShapeELb0EE7_S_baseES4_ @155
    _ZNSt10_Iter_baseIPtLb0EE7_S_baseES0_ @156
    _ZNSt10_Iter_baseISt13move_iteratorIPPN4ndGE6Window5ShapeEELb1EE7_S_baseES6_ @157
    _ZNSt10_Iter_baseISt13move_iteratorIPtELb1EE7_S_baseES2_ @158
    _ZNSt11__copy_moveILb1ELb1ESt26random_access_iterator_tagE8__copy_mIPN4ndGE6Window5ShapeEEEPT_PKS7_SA_S8_ @159
    _ZNSt11__copy_moveILb1ELb1ESt26random_access_iterator_tagE8__copy_mItEEPT_PKS3_S6_S4_ @160
    _ZNSt12_Destroy_auxILb0EE9__destroyIPSt6vectorIN3glm7tmat4x4IfLNS3_9precisionE0EEESaIS6_EEEEvT_SA_ @161
    _ZNSt12_Destroy_auxILb1EE9__destroyIPN3glm7tmat4x4IfLNS2_9precisionE0EEEEEvT_S7_ @162
    _ZNSt12_Destroy_auxILb1EE9__destroyIPN4ndGE6VertexEEEvT_S5_ @163
    _ZNSt12_Destroy_auxILb1EE9__destroyIPPN4ndGE6Window5ShapeEEEvT_S7_ @164
    _ZNSt12_Destroy_auxILb1EE9__destroyIPtEEvT_S3_ @165
    _ZNSt12_Vector_baseIN3glm7tmat4x4IfLNS0_9precisionE0EEESaIS3_EE11_M_allocateEy @166
    _ZNSt12_Vector_baseIN3glm7tmat4x4IfLNS0_9precisionE0EEESaIS3_EE12_Vector_impl12_M_swap_dataERS6_ @167
    _ZNSt12_Vector_baseIN3glm7tmat4x4IfLNS0_9precisionE0EEESaIS3_EE12_Vector_implC1EOS4_ @168
    _ZNSt12_Vector_baseIN3glm7tmat4x4IfLNS0_9precisionE0EEESaIS3_EE12_Vector_implC1Ev @169
    _ZNSt12_Vector_baseIN3glm7tmat4x4IfLNS0_9precisionE0EEESaIS3_EE12_Vector_implD1Ev @170
    _ZNSt12_Vector_baseIN3glm7tmat4x4IfLNS0_9precisionE0EEESaIS3_EE13_M_deallocateEPS3_y @171
    _ZNSt12_Vector_baseIN3glm7tmat4x4IfLNS0_9precisionE0EEESaIS3_EE19_M_get_Tp_allocatorEv @172
    _ZNSt12_Vector_baseIN3glm7tmat4x4IfLNS0_9precisionE0EEESaIS3_EEC2EOS5_ @173
    _ZNSt12_Vector_baseIN3glm7tmat4x4IfLNS0_9precisionE0EEESaIS3_EEC2Ev @174
    _ZNSt12_Vector_baseIN3glm7tmat4x4IfLNS0_9precisionE0EEESaIS3_EED2Ev @175
    _ZNSt12_Vector_baseIN4ndGE6VertexESaIS1_EE11_M_allocateEy @176
    _ZNSt12_Vector_baseIN4ndGE6VertexESaIS1_EE12_Vector_implC1Ev @177
    _ZNSt12_Vector_baseIN4ndGE6VertexESaIS1_EE12_Vector_implD1Ev @178
    _ZNSt12_Vector_baseIN4ndGE6VertexESaIS1_EE13_M_deallocateEPS1_y @179
    _ZNSt12_Vector_baseIN4ndGE6VertexESaIS1_EE19_M_get_Tp_allocatorEv @180
    _ZNSt12_Vector_baseIN4ndGE6VertexESaIS1_EEC2Ev @181
    _ZNSt12_Vector_baseIN4ndGE6VertexESaIS1_EED2Ev @182
    _ZNSt12_Vector_baseIPN4ndGE6Window5ShapeESaIS3_EE11_M_allocateEy @183
    _ZNSt12_Vector_baseIPN4ndGE6Window5ShapeESaIS3_EE12_Vector_implC1Ev @184
    _ZNSt12_Vector_baseIPN4ndGE6Window5ShapeESaIS3_EE12_Vector_implD1Ev @185
    _ZNSt12_Vector_baseIPN4ndGE6Window5ShapeESaIS3_EE13_M_deallocateEPS3_y @186
    _ZNSt12_Vector_baseIPN4ndGE6Window5ShapeESaIS3_EE19_M_get_Tp_allocatorEv @187
    _ZNSt12_Vector_baseIPN4ndGE6Window5ShapeESaIS3_EEC2Ev @188
    _ZNSt12_Vector_baseIPN4ndGE6Window5ShapeESaIS3_EED2Ev @189
    _ZNSt12_Vector_baseISt6vectorIN3glm7tmat4x4IfLNS1_9precisionE0EEESaIS4_EESaIS6_EE11_M_allocateEy @190
    _ZNSt12_Vector_baseISt6vectorIN3glm7tmat4x4IfLNS1_9precisionE0EEESaIS4_EESaIS6_EE12_Vector_implC1Ev @191
    _ZNSt12_Vector_baseISt6vectorIN3glm7tmat4x4IfLNS1_9precisionE0EEESaIS4_EESaIS6_EE12_Vector_implD1Ev @192
    _ZNSt12_Vector_baseISt6vectorIN3glm7tmat4x4IfLNS1_9precisionE0EEESaIS4_EESaIS6_EE13_M_deallocateEPS6_y @193
    _ZNSt12_Vector_baseISt6vectorIN3glm7tmat4x4IfLNS1_9precisionE0EEESaIS4_EESaIS6_EE19_M_get_Tp_allocatorEv @194
    _ZNSt12_Vector_baseISt6vectorIN3glm7tmat4x4IfLNS1_9precisionE0EEESaIS4_EESaIS6_EEC2Ev @195
    _ZNSt12_Vector_baseISt6vectorIN3glm7tmat4x4IfLNS1_9precisionE0EEESaIS4_EESaIS6_EED2Ev @196
    _ZNSt12_Vector_baseItSaItEE11_M_allocateEy @197
    _ZNSt12_Vector_baseItSaItEE12_Vector_implC1Ev @198
    _ZNSt12_Vector_baseItSaItEE12_Vector_implD1Ev @199
    _ZNSt12_Vector_baseItSaItEE13_M_deallocateEPty @200
    _ZNSt12_Vector_baseItSaItEE19_M_get_Tp_allocatorEv @201
    _ZNSt12_Vector_baseItSaItEEC2Ev @202
    _ZNSt12_Vector_baseItSaItEED2Ev @203
    _ZNSt13move_iteratorIPN3glm7tmat4x4IfLNS0_9precisionE0EEEEC1ES4_ @204
    _ZNSt13move_iteratorIPN3glm7tmat4x4IfLNS0_9precisionE0EEEEppEv @205
    _ZNSt13move_iteratorIPN4ndGE6VertexEEC1ES2_ @206
    _ZNSt13move_iteratorIPN4ndGE6VertexEEppEv @207
    _ZNSt13move_iteratorIPPN4ndGE6Window5ShapeEEC1ES4_ @208
    _ZNSt13move_iteratorIPSt6vectorIN3glm7tmat4x4IfLNS1_9precisionE0EEESaIS4_EEEC1ES7_ @209
    _ZNSt13move_iteratorIPSt6vectorIN3glm7tmat4x4IfLNS1_9precisionE0EEESaIS4_EEEppEv @210
    _ZNSt13move_iteratorIPtEC1ES0_ @211
    _ZNSt14numeric_limitsIfE7epsilonEv @212
    _ZNSt16allocator_traitsISaIN3glm7tmat4x4IfLNS0_9precisionE0EEEEE10_S_destroyIS3_EENSt9enable_ifIXsrSt6__and_IJNS5_16__destroy_helperIT_E4typeEEE5valueEvE4typeERS4_PSA_ @213
    _ZNSt16allocator_traitsISaIN3glm7tmat4x4IfLNS0_9precisionE0EEEEE10deallocateERS4_PS3_y @214
    _ZNSt16allocator_traitsISaIN3glm7tmat4x4IfLNS0_9precisionE0EEEEE11_S_max_sizeIKS4_vEEyRT_i @215
    _ZNSt16allocator_traitsISaIN3glm7tmat4x4IfLNS0_9precisionE0EEEEE12_S_constructIS3_JS3_EEENSt9enable_ifIXsrSt6__and_IJNS5_18__construct_helperIT_JDpT0_EE4typeEEE5valueEvE4typeERS4_PSA_DpOSB_ @216
    _ZNSt16allocator_traitsISaIN3glm7tmat4x4IfLNS0_9precisionE0EEEEE7destroyIS3_EEvRS4_PT_ @217
    _ZNSt16allocator_traitsISaIN3glm7tmat4x4IfLNS0_9precisionE0EEEEE8allocateERS4_y @218
    _ZNSt16allocator_traitsISaIN3glm7tmat4x4IfLNS0_9precisionE0EEEEE8max_sizeERKS4_ @219
    _ZNSt16allocator_traitsISaIN3glm7tmat4x4IfLNS0_9precisionE0EEEEE9constructIS3_JS3_EEEDTcl12_S_constructfp_fp0_spcl7forwardIT0_Efp1_EEERS4_PT_DpOS7_ @220
    _ZNSt16allocator_traitsISaIN4ndGE6VertexEEE10_S_destroyIS1_EENSt9enable_ifIXsrSt6__and_IJNS3_16__destroy_helperIT_E4typeEEE5valueEvE4typeERS2_PS8_ @221
    _ZNSt16allocator_traitsISaIN4ndGE6VertexEEE10deallocateERS2_PS1_y @222
    _ZNSt16allocator_traitsISaIN4ndGE6VertexEEE11_S_max_sizeIKS2_vEEyRT_i @223
    _ZNSt16allocator_traitsISaIN4ndGE6VertexEEE12_S_constructIS1_JS1_EEENSt9enable_ifIXsrSt6__and_IJNS3_18__construct_helperIT_JDpT0_EE4typeEEE5valueEvE4typeERS2_PS8_DpOS9_ @224
    _ZNSt16allocator_traitsISaIN4ndGE6VertexEEE7destroyIS1_EEvRS2_PT_ @225
    _ZNSt16allocator_traitsISaIN4ndGE6VertexEEE8allocateERS2_y @226
    _ZNSt16allocator_traitsISaIN4ndGE6VertexEEE8max_sizeERKS2_ @227
    _ZNSt16allocator_traitsISaIN4ndGE6VertexEEE9constructIS1_JS1_EEEDTcl12_S_constructfp_fp0_spcl7forwardIT0_Efp1_EEERS2_PT_DpOS5_ @228
    _ZNSt16allocator_traitsISaIPN4ndGE6Window5ShapeEEE10_S_destroyIS3_EENSt9enable_ifIXsrSt6__and_IJNS5_16__destroy_helperIT_E4typeEEE5valueEvE4typeERS4_PSA_ @229
    _ZNSt16allocator_traitsISaIPN4ndGE6Window5ShapeEEE10deallocateERS4_PS3_y @230
    _ZNSt16allocator_traitsISaIPN4ndGE6Window5ShapeEEE11_S_max_sizeIKS4_vEEyRT_i @231
    _ZNSt16allocator_traitsISaIPN4ndGE6Window5ShapeEEE12_S_constructIS3_JRKS3_EEENSt9enable_ifIXsrSt6__and_IJNS5_18__construct_helperIT_JDpT0_EE4typeEEE5valueEvE4typeERS4_PSC_DpOSD_ @232
    _ZNSt16allocator_traitsISaIPN4ndGE6Window5ShapeEEE7destroyIS3_EEvRS4_PT_ @233
    _ZNSt16allocator_traitsISaIPN4ndGE6Window5ShapeEEE8allocateERS4_y @234
    _ZNSt16allocator_traitsISaIPN4ndGE6Window5ShapeEEE8max_sizeERKS4_ @235
    _ZNSt16allocator_traitsISaIPN4ndGE6Window5ShapeEEE9constructIS3_JRKS3_EEEDTcl12_S_constructfp_fp0_spcl7forwardIT0_Efp1_EEERS4_PT_DpOS9_ @236
    _ZNSt16allocator_traitsISaISt6vectorIN3glm7tmat4x4IfLNS1_9precisionE0EEESaIS4_EEEE10_S_destroyIS6_EENSt9enable_ifIXsrSt6__and_IJNS8_16__destroy_helperIT_E4typeEEE5valueEvE4typeERS7_PSD_ @237
    _ZNSt16allocator_traitsISaISt6vectorIN3glm7tmat4x4IfLNS1_9precisionE0EEESaIS4_EEEE10deallocateERS7_PS6_y @238
    _ZNSt16allocator_traitsISaISt6vectorIN3glm7tmat4x4IfLNS1_9precisionE0EEESaIS4_EEEE11_S_max_sizeIKS7_vEEyRT_i @239
    _ZNSt16allocator_traitsISaISt6vectorIN3glm7tmat4x4IfLNS1_9precisionE0EEESaIS4_EEEE12_S_constructIS6_JS6_EEENSt9enable_ifIXsrSt6__and_IJNS8_18__construct_helperIT_JDpT0_EE4typeEEE5valueEvE4typeERS7_PSD_DpOSE_ @240
    _ZNSt16allocator_traitsISaISt6vectorIN3glm7tmat4x4IfLNS1_9precisionE0EEESaIS4_EEEE7destroyIS6_EEvRS7_PT_ @241
    _ZNSt16allocator_traitsISaISt6vectorIN3glm7tmat4x4IfLNS1_9precisionE0EEESaIS4_EEEE8allocateERS7_y @242
    _ZNSt16allocator_traitsISaISt6vectorIN3glm7tmat4x4IfLNS1_9precisionE0EEESaIS4_EEEE8max_sizeERKS7_ @243
    _ZNSt16allocator_traitsISaISt6vectorIN3glm7tmat4x4IfLNS1_9precisionE0EEESaIS4_EEEE9constructIS6_JS6_EEEDTcl12_S_constructfp_fp0_spcl7forwardIT0_Efp1_EEERS7_PT_DpOSA_ @244
    _ZNSt16allocator_traitsISaItEE10_S_destroyItEENSt9enable_ifIXsrSt6__and_IJNS1_16__destroy_helperIT_E4typeEEE5valueEvE4typeERS0_PS6_ @245
    _ZNSt16allocator_traitsISaItEE10deallocateERS0_Pty @246
    _ZNSt16allocator_traitsISaItEE11_S_max_sizeIKS0_vEEyRT_i @247
    _ZNSt16allocator_traitsISaItEE12_S_constructItJRKtEEENSt9enable_ifIXsrSt6__and_IJNS1_18__construct_helperIT_JDpT0_EE4typeEEE5valueEvE4typeERS0_PS8_DpOS9_ @248
    _ZNSt16allocator_traitsISaItEE7destroyItEEvRS0_PT_ @249
    _ZNSt16allocator_traitsISaItEE8allocateERS0_y @250
    _ZNSt16allocator_traitsISaItEE8max_sizeERKS0_ @251
    _ZNSt16allocator_traitsISaItEE9constructItJRKtEEEDTcl12_S_constructfp_fp0_spcl7forwardIT0_Efp1_EEERS0_PT_DpOS5_ @252
    _ZNSt20__uninitialized_copyILb0EE13__uninit_copyISt13move_iteratorIPN3glm7tmat4x4IfLNS3_9precisionE0EEEES7_EET0_T_SA_S9_ @253
    _ZNSt20__uninitialized_copyILb0EE13__uninit_copyISt13move_iteratorIPN4ndGE6VertexEES5_EET0_T_S8_S7_ @254
    _ZNSt20__uninitialized_copyILb0EE13__uninit_copyISt13move_iteratorIPSt6vectorIN3glm7tmat4x4IfLNS4_9precisionE0EEESaIS7_EEESA_EET0_T_SD_SC_ @255
    _ZNSt20__uninitialized_copyILb1EE13__uninit_copyISt13move_iteratorIPPN4ndGE6Window5ShapeEES7_EET0_T_SA_S9_ @256
    _ZNSt20__uninitialized_copyILb1EE13__uninit_copyISt13move_iteratorIPtES3_EET0_T_S6_S5_ @257
    _ZNSt6vectorIN3glm7tmat4x4IfLNS0_9precisionE0EEESaIS3_EE12emplace_backIJS3_EEEvDpOT_ @258
    _ZNSt6vectorIN3glm7tmat4x4IfLNS0_9precisionE0EEESaIS3_EE15_M_erase_at_endEPS3_ @259
    _ZNSt6vectorIN3glm7tmat4x4IfLNS0_9precisionE0EEESaIS3_EE19_M_emplace_back_auxIJS3_EEEvDpOT_ @260
    _ZNSt6vectorIN3glm7tmat4x4IfLNS0_9precisionE0EEESaIS3_EE5clearEv @261
    _ZNSt6vectorIN3glm7tmat4x4IfLNS0_9precisionE0EEESaIS3_EE9push_backEOS3_ @262
    _ZNSt6vectorIN3glm7tmat4x4IfLNS0_9precisionE0EEESaIS3_EEC1EOS5_ @263
    _ZNSt6vectorIN3glm7tmat4x4IfLNS0_9precisionE0EEESaIS3_EEC1Ev @264
    _ZNSt6vectorIN3glm7tmat4x4IfLNS0_9precisionE0EEESaIS3_EED1Ev @265
    _ZNSt6vectorIN3glm7tmat4x4IfLNS0_9precisionE0EEESaIS3_EEixEy @266
    _ZNSt6vectorIN4ndGE6VertexESaIS1_EE12emplace_backIJS1_EEEvDpOT_ @267
    _ZNSt6vectorIN4ndGE6VertexESaIS1_EE19_M_emplace_back_auxIJS1_EEEvDpOT_ @268
    _ZNSt6vectorIN4ndGE6VertexESaIS1_EE9push_backEOS1_ @269
    _ZNSt6vectorIN4ndGE6VertexESaIS1_EEC1Ev @270
    _ZNSt6vectorIN4ndGE6VertexESaIS1_EED1Ev @271
    _ZNSt6vectorIN4ndGE6VertexESaIS1_EEixEy @272
    _ZNSt6vectorIPN4ndGE6Window5ShapeESaIS3_EE19_M_emplace_back_auxIJRKS3_EEEvDpOT_ @273
    _ZNSt6vectorIPN4ndGE6Window5ShapeESaIS3_EE9push_backERKS3_ @274
    _ZNSt6vectorIPN4ndGE6Window5ShapeESaIS3_EEC1Ev @275
    _ZNSt6vectorIPN4ndGE6Window5ShapeESaIS3_EED1Ev @276
    _ZNSt6vectorIPN4ndGE6Window5ShapeESaIS3_EEixEy @277
    _ZNSt6vectorIS_IN3glm7tmat4x4IfLNS0_9precisionE0EEESaIS3_EESaIS5_EE12emplace_backIJS5_EEEvDpOT_ @278
    _ZNSt6vectorIS_IN3glm7tmat4x4IfLNS0_9precisionE0EEESaIS3_EESaIS5_EE19_M_emplace_back_auxIJS5_EEEvDpOT_ @279
    _ZNSt6vectorIS_IN3glm7tmat4x4IfLNS0_9precisionE0EEESaIS3_EESaIS5_EE9push_backEOS5_ @280
    _ZNSt6vectorIS_IN3glm7tmat4x4IfLNS0_9precisionE0EEESaIS3_EESaIS5_EEC1Ev @281
    _ZNSt6vectorIS_IN3glm7tmat4x4IfLNS0_9precisionE0EEESaIS3_EESaIS5_EED1Ev @282
    _ZNSt6vectorIS_IN3glm7tmat4x4IfLNS0_9precisionE0EEESaIS3_EESaIS5_EEixEy @283
    _ZNSt6vectorItSaItEE19_M_emplace_back_auxIJRKtEEEvDpOT_ @284
    _ZNSt6vectorItSaItEE9push_backERKt @285
    _ZNSt6vectorItSaItEEC1Ev @286
    _ZNSt6vectorItSaItEED1Ev @287
    _ZNSt6vectorItSaItEEixEy @288
    _ZSt10_ConstructIN3glm7tmat4x4IfLNS0_9precisionE0EEEJS3_EEvPT_DpOT0_ @289
    _ZSt10_ConstructIN4ndGE6VertexEJS1_EEvPT_DpOT0_ @290
    _ZSt10_ConstructISt6vectorIN3glm7tmat4x4IfLNS1_9precisionE0EEESaIS4_EEJS6_EEvPT_DpOT0_ @291
    _ZSt11__addressofIN3glm7tmat4x4IfLNS0_9precisionE0EEEEPT_RS4_ @292
    _ZSt11__addressofIN4ndGE6VertexEEPT_RS2_ @293
    _ZSt11__addressofISt6vectorIN3glm7tmat4x4IfLNS1_9precisionE0EEESaIS4_EEEPT_RS7_ @294
    _ZSt12__miter_baseISt13move_iteratorIPPN4ndGE6Window5ShapeEEENSt11_Miter_baseIT_E13iterator_typeES8_ @295
    _ZSt12__miter_baseISt13move_iteratorIPtEENSt11_Miter_baseIT_E13iterator_typeES4_ @296
    _ZSt12__niter_baseIPPN4ndGE6Window5ShapeEENSt11_Niter_baseIT_E13iterator_typeES6_ @297
    _ZSt12__niter_baseIPtENSt11_Niter_baseIT_E13iterator_typeES2_ @298
    _ZSt13__copy_move_aILb1EPPN4ndGE6Window5ShapeES4_ET1_T0_S6_S5_ @299
    _ZSt13__copy_move_aILb1EPtS0_ET1_T0_S2_S1_ @300
    _ZSt14__copy_move_a2ILb1EPPN4ndGE6Window5ShapeES4_ET1_T0_S6_S5_ @301
    _ZSt14__copy_move_a2ILb1EPtS0_ET1_T0_S2_S1_ @302
    _ZSt18uninitialized_copyISt13move_iteratorIPN3glm7tmat4x4IfLNS1_9precisionE0EEEES5_ET0_T_S8_S7_ @303
    _ZSt18uninitialized_copyISt13move_iteratorIPN4ndGE6VertexEES3_ET0_T_S6_S5_ @304
    _ZSt18uninitialized_copyISt13move_iteratorIPPN4ndGE6Window5ShapeEES5_ET0_T_S8_S7_ @305
    _ZSt18uninitialized_copyISt13move_iteratorIPSt6vectorIN3glm7tmat4x4IfLNS2_9precisionE0EEESaIS5_EEES8_ET0_T_SB_SA_ @306
    _ZSt18uninitialized_copyISt13move_iteratorIPtES1_ET0_T_S4_S3_ @307
    _ZSt22__uninitialized_copy_aISt13move_iteratorIPN3glm7tmat4x4IfLNS1_9precisionE0EEEES5_S4_ET0_T_S8_S7_RSaIT1_E @308
    _ZSt22__uninitialized_copy_aISt13move_iteratorIPN4ndGE6VertexEES3_S2_ET0_T_S6_S5_RSaIT1_E @309
    _ZSt22__uninitialized_copy_aISt13move_iteratorIPPN4ndGE6Window5ShapeEES5_S4_ET0_T_S8_S7_RSaIT1_E @310
    _ZSt22__uninitialized_copy_aISt13move_iteratorIPSt6vectorIN3glm7tmat4x4IfLNS2_9precisionE0EEESaIS5_EEES8_S7_ET0_T_SB_SA_RSaIT1_E @311
    _ZSt22__uninitialized_copy_aISt13move_iteratorIPtES1_tET0_T_S4_S3_RSaIT1_E @312
    _ZSt32__make_move_if_noexcept_iteratorIPN3glm7tmat4x4IfLNS0_9precisionE0EEESt13move_iteratorIS4_EET0_T_ @313
    _ZSt32__make_move_if_noexcept_iteratorIPN4ndGE6VertexESt13move_iteratorIS2_EET0_T_ @314
    _ZSt32__make_move_if_noexcept_iteratorIPPN4ndGE6Window5ShapeESt13move_iteratorIS4_EET0_T_ @315
    _ZSt32__make_move_if_noexcept_iteratorIPSt6vectorIN3glm7tmat4x4IfLNS1_9precisionE0EEESaIS4_EESt13move_iteratorIS7_EET0_T_ @316
    _ZSt32__make_move_if_noexcept_iteratorIPtSt13move_iteratorIS0_EET0_T_ @317
    _ZSt34__uninitialized_move_if_noexcept_aIPN3glm7tmat4x4IfLNS0_9precisionE0EEES4_SaIS3_EET0_T_S7_S6_RT1_ @318
    _ZSt34__uninitialized_move_if_noexcept_aIPN4ndGE6VertexES2_SaIS1_EET0_T_S5_S4_RT1_ @319
    _ZSt34__uninitialized_move_if_noexcept_aIPPN4ndGE6Window5ShapeES4_SaIS3_EET0_T_S7_S6_RT1_ @320
    _ZSt34__uninitialized_move_if_noexcept_aIPSt6vectorIN3glm7tmat4x4IfLNS1_9precisionE0EEESaIS4_EES7_SaIS6_EET0_T_SA_S9_RT1_ @321
    _ZSt34__uninitialized_move_if_noexcept_aIPtS0_SaItEET0_T_S3_S2_RT1_ @322
    _ZSt3cosf @323
    _ZSt3maxIyERKT_S2_S2_ @324
    _ZSt3sinf @325
    _ZSt3tanf @326
    _ZSt4copyISt13move_iteratorIPPN4ndGE6Window5ShapeEES5_ET0_T_S8_S7_ @327
    _ZSt4copyISt13move_iteratorIPtES1_ET0_T_S4_S3_ @328
    _ZSt4moveIRN3glm7tmat4x4IfLNS0_9precisionE0EEEEONSt16remove_referenceIT_E4typeEOS6_ @329
    _ZSt4moveIRN4ndGE6VertexEEONSt16remove_referenceIT_E4typeEOS4_ @330
    _ZSt4moveIRPN3glm7tmat4x4IfLNS0_9precisionE0EEEEONSt16remove_referenceIT_E4typeEOS7_ @331
    _ZSt4moveIRSaIN3glm7tmat4x4IfLNS0_9precisionE0EEEEEONSt16remove_referenceIT_E4typeEOS7_ @332
    _ZSt4moveIRSt6vectorIN3glm7tmat4x4IfLNS1_9precisionE0EEESaIS4_EEEONSt16remove_referenceIT_E4typeEOS9_ @333
    _ZSt4sqrtf @334
    _ZSt4swapIPN3glm7tmat4x4IfLNS0_9precisionE0EEEEvRT_S6_ @335
    _ZSt7forwardIN3glm7tmat4x4IfLNS0_9precisionE0EEEEOT_RNSt16remove_referenceIS4_E4typeE @336
    _ZSt7forwardIN4ndGE6VertexEEOT_RNSt16remove_referenceIS2_E4typeE @337
    _ZSt7forwardIRKPN4ndGE6Window5ShapeEEOT_RNSt16remove_referenceIS6_E4typeE @338
    _ZSt7forwardIRKtEOT_RNSt16remove_referenceIS2_E4typeE @339
    _ZSt7forwardISt6vectorIN3glm7tmat4x4IfLNS1_9precisionE0EEESaIS4_EEEOT_RNSt16remove_referenceIS7_E4typeE @340
    _ZSt8_DestroyIPN3glm7tmat4x4IfLNS0_9precisionE0EEEEvT_S5_ @341
    _ZSt8_DestroyIPN3glm7tmat4x4IfLNS0_9precisionE0EEES3_EvT_S5_RSaIT0_E @342
    _ZSt8_DestroyIPN4ndGE6VertexEEvT_S3_ @343
    _ZSt8_DestroyIPN4ndGE6VertexES1_EvT_S3_RSaIT0_E @344
    _ZSt8_DestroyIPPN4ndGE6Window5ShapeEEvT_S5_ @345
    _ZSt8_DestroyIPPN4ndGE6Window5ShapeES3_EvT_S5_RSaIT0_E @346
    _ZSt8_DestroyIPSt6vectorIN3glm7tmat4x4IfLNS1_9precisionE0EEESaIS4_EEEvT_S8_ @347
    _ZSt8_DestroyIPSt6vectorIN3glm7tmat4x4IfLNS1_9precisionE0EEESaIS4_EES6_EvT_S8_RSaIT0_E @348
    _ZSt8_DestroyIPtEvT_S1_ @349
    _ZSt8_DestroyIPttEvT_S1_RSaIT0_E @350
    _ZSt8_DestroyISt6vectorIN3glm7tmat4x4IfLNS1_9precisionE0EEESaIS4_EEEvPT_ @351
    _ZSteqIPN3glm7tmat4x4IfLNS0_9precisionE0EEEEbRKSt13move_iteratorIT_ES9_ @352
    _ZSteqIPN4ndGE6VertexEEbRKSt13move_iteratorIT_ES7_ @353
    _ZSteqIPSt6vectorIN3glm7tmat4x4IfLNS1_9precisionE0EEESaIS4_EEEbRKSt13move_iteratorIT_ESC_ @354
    _ZStneIPN3glm7tmat4x4IfLNS0_9precisionE0EEEEbRKSt13move_iteratorIT_ES9_ @355
    _ZStneIPN4ndGE6VertexEEbRKSt13move_iteratorIT_ES7_ @356
    _ZStneIPSt6vectorIN3glm7tmat4x4IfLNS1_9precisionE0EEESaIS4_EEEbRKSt13move_iteratorIT_ESC_ @357
    _ZStorSt13_Ios_OpenmodeS_ @358
    _ZnwyPv @359
